libartikulatecore.so.0:_ZN11Application11qt_metacallEN11QMetaObject4CallEiPPv
libartikulatecore.so.0:_ZN11Application11qt_metacastEPKc
libartikulatecore.so.0:_ZN11Application16registerQmlTypesEv
libartikulatecore.so.0:_ZN11Application25installResourceRepositoryEP19IResourceRepository
libartikulatecore.so.0:_ZN11ApplicationC1ERiPPc
libartikulatecore.so.0:_ZN11ApplicationC2ERiPPc
libartikulatecore.so.0:_ZN11CourseModel11qt_metacallEN11QMetaObject4CallEiPPv
libartikulatecore.so.0:_ZN11CourseModel11qt_metacastEPKc
libartikulatecore.so.0:_ZN11CourseModel13onCourseAddedEv
libartikulatecore.so.0:_ZN11CourseModel21setResourceRepositoryEP19IResourceRepository
libartikulatecore.so.0:_ZN11CourseModel22onCourseAboutToBeAddedESt10shared_ptrI7ICourseEi
libartikulatecore.so.0:_ZN11CourseModel24onCourseAboutToBeRemovedEi
libartikulatecore.so.0:_ZN11CourseModelC1EP19IResourceRepositoryP7QObject
libartikulatecore.so.0:_ZN11CourseModelC1EP7QObject
libartikulatecore.so.0:_ZN11CourseModelC2EP19IResourceRepositoryP7QObject
libartikulatecore.so.0:_ZN11CourseModelC2EP7QObject
libartikulatecore.so.0:_ZN12CourseParser10parseUnitsERK4QUrl7QVectorISt10shared_ptrI7PhonemeEEb
libartikulatecore.so.0:_ZN12CourseParser11parsePhraseER16QXmlStreamReaderRK4QUrl7QVectorISt10shared_ptrI7PhonemeEERb
libartikulatecore.so.0:_ZN12CourseParser12parseElementER16QXmlStreamReaderRb
libartikulatecore.so.0:_ZN12CourseParser13loadXmlSchemaERK7QString
libartikulatecore.so.0:_ZN12CourseParser15loadDomDocumentERK4QUrlRK10QXmlSchema
libartikulatecore.so.0:_ZN12CourseParser15parsePhonemeIdsER16QXmlStreamReaderRb
libartikulatecore.so.0:_ZN12CourseParser16serializedPhraseESt10shared_ptrI15IEditablePhraseER12QDomDocument
libartikulatecore.so.0:_ZN12CourseParser18serializedDocumentESt10shared_ptrI15IEditableCourseEb
libartikulatecore.so.0:_ZN12CourseParser25exportCourseToGhnsPackageESt10shared_ptrI15IEditableCourseERK7QString
libartikulatecore.so.0:_ZN12CourseParser9parseUnitER16QXmlStreamReaderRK4QUrl7QVectorISt10shared_ptrI7PhonemeEEbRb
libartikulatecore.so.0:_ZN12PhonemeGroup10addPhonemeERK7QStringS2_
libartikulatecore.so.0:_ZN12PhonemeGroup10addPhonemeESt10unique_ptrI7PhonemeSt14default_deleteIS1_EE
libartikulatecore.so.0:_ZN12PhonemeGroup11qt_metacallEN11QMetaObject4CallEiPPv
libartikulatecore.so.0:_ZN12PhonemeGroup11qt_metacastEPKc
libartikulatecore.so.0:_ZN12PhonemeGroup12titleChangedEv
libartikulatecore.so.0:_ZN12PhonemeGroup14setDescriptionERK7QString
libartikulatecore.so.0:_ZN12PhonemeGroup18descriptionChangedEv
libartikulatecore.so.0:_ZN12PhonemeGroup5setIdERK7QString
libartikulatecore.so.0:_ZN12PhonemeGroup8setTitleERK7QString
libartikulatecore.so.0:_ZN12PhonemeGroup9idChangedEv
libartikulatecore.so.0:_ZN12PhonemeGroupC1Ev
libartikulatecore.so.0:_ZN12PhonemeGroupC2Ev
libartikulatecore.so.0:_ZN12PhonemeGroupD0Ev
libartikulatecore.so.0:_ZN12PhonemeGroupD1Ev
libartikulatecore.so.0:_ZN12PhonemeGroupD2Ev
libartikulatecore.so.0:_ZN13EditorSession11qt_metacallEN11QMetaObject4CallEiPPv
libartikulatecore.so.0:_ZN13EditorSession11qt_metacastEPKc
libartikulatecore.so.0:_ZN13EditorSession11unitChangedEv
libartikulatecore.so.0:_ZN13EditorSession13setActiveUnitEP5IUnit
libartikulatecore.so.0:_ZN13EditorSession13setRepositoryEP19IEditableRepository
libartikulatecore.so.0:_ZN13EditorSession13updateActionsESt10shared_ptrI13IEditableUnitE
libartikulatecore.so.0:_ZN13EditorSession15languageChangedEv
libartikulatecore.so.0:_ZN13EditorSession15setActivePhraseEP7IPhrase
libartikulatecore.so.0:_ZN13EditorSession18switchToNextPhraseEv
libartikulatecore.so.0:_ZN13EditorSession19skeletonModeChangedEv
libartikulatecore.so.0:_ZN13EditorSession21updateTrainingActionsEv
libartikulatecore.so.0:_ZN13EditorSession22switchToPreviousPhraseEv
libartikulatecore.so.0:_ZN13EditorSession24updateCourseFromSkeletonEv
libartikulatecore.so.0:_ZN13EditorSession9setCourseEP15IEditableCourse
libartikulatecore.so.0:_ZN13EditorSessionC1EP7QObject
libartikulatecore.so.0:_ZN13EditorSessionC2EP7QObject
libartikulatecore.so.0:_ZN13IEditableUnit11qt_metacallEN11QMetaObject4CallEiPPv
libartikulatecore.so.0:_ZN13IEditableUnit11qt_metacastEPKc
libartikulatecore.so.0:_ZN13IEditableUnit14phrasesChangedESt10shared_ptrIS_E
libartikulatecore.so.0:_ZN13IEditableUnit8modifiedEv
libartikulatecore.so.0:_ZN13SkeletonModel11qt_metacallEN11QMetaObject4CallEiPPv
libartikulatecore.so.0:_ZN13SkeletonModel11qt_metacastEPKc
libartikulatecore.so.0:_ZN13SkeletonModel15onSkeletonAddedEv
libartikulatecore.so.0:_ZN13SkeletonModel17onSkeletonRemovedEv
libartikulatecore.so.0:_ZN13SkeletonModel21setResourceRepositoryEP19IEditableRepository
libartikulatecore.so.0:_ZN13SkeletonModel24onSkeletonAboutToBeAddedESt10shared_ptrI15IEditableCourseEi
libartikulatecore.so.0:_ZN13SkeletonModel26onSkeletonAboutToBeRemovedEi
libartikulatecore.so.0:_ZN13SkeletonModelC1EP19IEditableRepositoryP7QObject
libartikulatecore.so.0:_ZN13SkeletonModelC1EP7QObject
libartikulatecore.so.0:_ZN13SkeletonModelC2EP19IEditableRepositoryP7QObject
libartikulatecore.so.0:_ZN13SkeletonModelC2EP7QObject
libartikulatecore.so.0:_ZN14CourseResource11qt_metacallEN11QMetaObject4CallEiPPv
libartikulatecore.so.0:_ZN14CourseResource11qt_metacastEPKc
libartikulatecore.so.0:_ZN14CourseResource11setLanguageESt10shared_ptrI9ILanguageE
libartikulatecore.so.0:_ZN14CourseResource12setForeignIdERK7QString
libartikulatecore.so.0:_ZN14CourseResource12setI18nTitleERK7QString
libartikulatecore.so.0:_ZN14CourseResource12titleChangedEv
libartikulatecore.so.0:_ZN14CourseResource14setDescriptionERK7QString
libartikulatecore.so.0:_ZN14CourseResource15languageChangedEv
libartikulatecore.so.0:_ZN14CourseResource16foreignIdChangedEv
libartikulatecore.so.0:_ZN14CourseResource16i18nTitleChangedEv
libartikulatecore.so.0:_ZN14CourseResource18descriptionChangedEv
libartikulatecore.so.0:_ZN14CourseResource5setIdERK7QString
libartikulatecore.so.0:_ZN14CourseResource5unitsEv
libartikulatecore.so.0:_ZN14CourseResource6createERK4QUrlP19IResourceRepositoryb
libartikulatecore.so.0:_ZN14CourseResource7addUnitESt10shared_ptrI4UnitE
libartikulatecore.so.0:_ZN14CourseResource7setSelfESt10shared_ptrI7ICourseE
libartikulatecore.so.0:_ZN14CourseResource8setTitleERK7QString
libartikulatecore.so.0:_ZN14CourseResource9idChangedEv
libartikulatecore.so.0:_ZN14CourseResourceC1ERK4QUrlP19IResourceRepositoryb
libartikulatecore.so.0:_ZN14CourseResourceC2ERK4QUrlP19IResourceRepositoryb
libartikulatecore.so.0:_ZN14CourseResourceD0Ev
libartikulatecore.so.0:_ZN14CourseResourceD1Ev
libartikulatecore.so.0:_ZN14CourseResourceD2Ev
libartikulatecore.so.0:_ZN14TrainingAction10setCheckedEb
libartikulatecore.so.0:_ZN14TrainingAction10setEnabledEb
libartikulatecore.so.0:_ZN14TrainingAction11actionModelEv
libartikulatecore.so.0:_ZN14TrainingAction11qt_metacallEN11QMetaObject4CallEiPPv
libartikulatecore.so.0:_ZN14TrainingAction11qt_metacastEPKc
libartikulatecore.so.0:_ZN14TrainingAction11textChangedE7QString
libartikulatecore.so.0:_ZN14TrainingAction12appendActionEPS_
libartikulatecore.so.0:_ZN14TrainingAction12clearActionsEv
libartikulatecore.so.0:_ZN14TrainingAction14actionsChangedEv
libartikulatecore.so.0:_ZN14TrainingAction14checkedChangedEb
libartikulatecore.so.0:_ZN14TrainingAction14enabledChangedEb
libartikulatecore.so.0:_ZN14TrainingAction4iconEv
libartikulatecore.so.0:_ZN14TrainingAction7setTextE7QString
libartikulatecore.so.0:_ZN14TrainingAction7triggerEv
libartikulatecore.so.0:_ZN14TrainingActionC1EP7QObject
libartikulatecore.so.0:_ZN14TrainingActionC1ERK7QStringP7QObject
libartikulatecore.so.0:_ZN14TrainingActionC1ESt10shared_ptrI7IPhraseEP15ISessionActionsP7QObject
libartikulatecore.so.0:_ZN14TrainingActionC2EP7QObject
libartikulatecore.so.0:_ZN14TrainingActionC2ERK7QStringP7QObject
libartikulatecore.so.0:_ZN14TrainingActionC2ESt10shared_ptrI7IPhraseEP15ISessionActionsP7QObject
libartikulatecore.so.0:_ZN15IEditableCourse11qt_metacallEN11QMetaObject4CallEiPPv
libartikulatecore.so.0:_ZN15IEditableCourse11qt_metacastEPKc
libartikulatecore.so.0:_ZN15IEditableCourse11unitChangedESt10shared_ptrI13IEditableUnitE
libartikulatecore.so.0:_ZN15IEditableCourse15modifiedChangedEb
libartikulatecore.so.0:_ZN15IEditablePhrase11qt_metacallEN11QMetaObject4CallEiPPv
libartikulatecore.so.0:_ZN15IEditablePhrase11qt_metacastEPKc
libartikulatecore.so.0:_ZN15IEditablePhrase16editStateChangedEv
libartikulatecore.so.0:_ZN15IEditablePhrase8modifiedEv
libartikulatecore.so.0:_ZN15ISessionActions11qt_metacallEN11QMetaObject4CallEiPPv
libartikulatecore.so.0:_ZN15ISessionActions11qt_metacastEPKc
libartikulatecore.so.0:_ZN15ISessionActions13courseChangedEv
libartikulatecore.so.0:_ZN15ISessionActions13phraseChangedEv
libartikulatecore.so.0:_ZN15ISessionActions14actionsChangedEv
libartikulatecore.so.0:_ZN15TrainingSession10updateGoalEv
libartikulatecore.so.0:_ZN15TrainingSession11qt_metacallEN11QMetaObject4CallEiPPv
libartikulatecore.so.0:_ZN15TrainingSession11qt_metacastEPKc
libartikulatecore.so.0:_ZN15TrainingSession15setActivePhraseEP7IPhrase
libartikulatecore.so.0:_ZN15TrainingSession16selectNextPhraseEv
libartikulatecore.so.0:_ZN15TrainingSession21updateTrainingActionsEv
libartikulatecore.so.0:_ZN15TrainingSession4skipEv
libartikulatecore.so.0:_ZN15TrainingSession6acceptEv
libartikulatecore.so.0:_ZN15TrainingSession7setUnitEP5IUnit
libartikulatecore.so.0:_ZN15TrainingSession9closeUnitEv
libartikulatecore.so.0:_ZN15TrainingSession9completedEv
libartikulatecore.so.0:_ZN15TrainingSession9setCourseEP7ICourse
libartikulatecore.so.0:_ZN15TrainingSessionC1EPN14LearnerProfile14ProfileManagerEP7QObject
libartikulatecore.so.0:_ZN15TrainingSessionC2EPN14LearnerProfile14ProfileManagerEP7QObject
libartikulatecore.so.0:_ZN16SkeletonResource10updateFromESt10shared_ptrI7ICourseE
libartikulatecore.so.0:_ZN16SkeletonResource11qt_metacallEN11QMetaObject4CallEiPPv
libartikulatecore.so.0:_ZN16SkeletonResource11qt_metacastEPKc
libartikulatecore.so.0:_ZN16SkeletonResource11setLanguageESt10shared_ptrI9ILanguageE
libartikulatecore.so.0:_ZN16SkeletonResource12deletePhraseEP7IPhrase
libartikulatecore.so.0:_ZN16SkeletonResource12setForeignIdE7QString
libartikulatecore.so.0:_ZN16SkeletonResource12setI18nTitleE7QString
libartikulatecore.so.0:_ZN16SkeletonResource14setDescriptionE7QString
libartikulatecore.so.0:_ZN16SkeletonResource17createPhraseAfterEP7IPhrase
libartikulatecore.so.0:_ZN16SkeletonResource4syncEv
libartikulatecore.so.0:_ZN16SkeletonResource5setIdE7QString
libartikulatecore.so.0:_ZN16SkeletonResource5unitsEv
libartikulatecore.so.0:_ZN16SkeletonResource6createERK4QUrlP19IResourceRepository
libartikulatecore.so.0:_ZN16SkeletonResource7addUnitESt10shared_ptrI4UnitE
libartikulatecore.so.0:_ZN16SkeletonResource7setSelfESt10shared_ptrI7ICourseE
libartikulatecore.so.0:_ZN16SkeletonResource8setTitleE7QString
libartikulatecore.so.0:_ZN16SkeletonResourceC1ERK4QUrlP19IResourceRepository
libartikulatecore.so.0:_ZN16SkeletonResourceC2ERK4QUrlP19IResourceRepository
libartikulatecore.so.0:_ZN16SkeletonResourceD0Ev
libartikulatecore.so.0:_ZN16SkeletonResourceD1Ev
libartikulatecore.so.0:_ZN16SkeletonResourceD2Ev
libartikulatecore.so.0:_ZN18ResourceRepository10loadCourseERK7QString
libartikulatecore.so.0:_ZN18ResourceRepository11qt_metacallEN11QMetaObject4CallEiPPv
libartikulatecore.so.0:_ZN18ResourceRepository11qt_metacastEPKc
libartikulatecore.so.0:_ZN18ResourceRepository12loadLanguageERK7QString
libartikulatecore.so.0:_ZN18ResourceRepository13reloadCoursesEv
libartikulatecore.so.0:_ZN18ResourceRepositoryC1ERK4QUrl
libartikulatecore.so.0:_ZN18ResourceRepositoryC1Ev
libartikulatecore.so.0:_ZN18ResourceRepositoryC2ERK4QUrl
libartikulatecore.so.0:_ZN18ResourceRepositoryC2Ev
libartikulatecore.so.0:_ZN18ResourceRepositoryD0Ev
libartikulatecore.so.0:_ZN18ResourceRepositoryD1Ev
libartikulatecore.so.0:_ZN18ResourceRepositoryD2Ev
libartikulatecore.so.0:_ZN18TrainingActionIcon11qt_metacallEN11QMetaObject4CallEiPPv
libartikulatecore.so.0:_ZN18TrainingActionIcon11qt_metacastEPKc
libartikulatecore.so.0:_ZN18TrainingActionIconC1EP7QObjectRK7QStringS4_iiRK6QColor
libartikulatecore.so.0:_ZN18TrainingActionIconC2EP7QObjectRK7QStringS4_iiRK6QColor
libartikulatecore.so.0:_ZN19IEditableRepository11qt_metacallEN11QMetaObject4CallEiPPv
libartikulatecore.so.0:_ZN19IEditableRepository11qt_metacastEPKc
libartikulatecore.so.0:_ZN19IEditableRepository13skeletonAddedEv
libartikulatecore.so.0:_ZN19IEditableRepository15skeletonRemovedEv
libartikulatecore.so.0:_ZN19IEditableRepository22skeletonAboutToBeAddedESt10shared_ptrI15IEditableCourseEi
libartikulatecore.so.0:_ZN19IEditableRepository24skeletonAboutToBeRemovedEi
libartikulatecore.so.0:_ZN19IResourceRepository11courseAddedEv
libartikulatecore.so.0:_ZN19IResourceRepository11qt_metacallEN11QMetaObject4CallEiPPv
libartikulatecore.so.0:_ZN19IResourceRepository11qt_metacastEPKc
libartikulatecore.so.0:_ZN19IResourceRepository13courseRemovedEv
libartikulatecore.so.0:_ZN19IResourceRepository20courseAboutToBeAddedESt10shared_ptrI7ICourseEi
libartikulatecore.so.0:_ZN19IResourceRepository22courseAboutToBeRemovedEi
libartikulatecore.so.0:_ZN21ContributorRepository11addLanguageERK4QUrl
libartikulatecore.so.0:_ZN21ContributorRepository11addSkeletonERK4QUrl
libartikulatecore.so.0:_ZN21ContributorRepository11qt_metacallEN11QMetaObject4CallEiPPv
libartikulatecore.so.0:_ZN21ContributorRepository11qt_metacastEPKc
libartikulatecore.so.0:_ZN21ContributorRepository12createCourseESt10shared_ptrI9ILanguageES0_I16SkeletonResourceE
libartikulatecore.so.0:_ZN21ContributorRepository12removeCourseESt10shared_ptrI7ICourseE
libartikulatecore.so.0:_ZN21ContributorRepository13reloadCoursesEv
libartikulatecore.so.0:_ZN21ContributorRepository13skeletonAddedEv
libartikulatecore.so.0:_ZN21ContributorRepository14removeSkeletonEP16SkeletonResource
libartikulatecore.so.0:_ZN21ContributorRepository15courseResourcesESt10shared_ptrI9ILanguageE
libartikulatecore.so.0:_ZN21ContributorRepository15skeletonRemovedEv
libartikulatecore.so.0:_ZN21ContributorRepository17repositoryChangedEv
libartikulatecore.so.0:_ZN21ContributorRepository18setStorageLocationERK4QUrl
libartikulatecore.so.0:_ZN21ContributorRepository21languageResourceAddedEv
libartikulatecore.so.0:_ZN21ContributorRepository21loadLanguageResourcesEv
libartikulatecore.so.0:_ZN21ContributorRepository22languageCoursesChangedEv
libartikulatecore.so.0:_ZN21ContributorRepository22reloadCourseOrSkeletonESt10shared_ptrI7ICourseE
libartikulatecore.so.0:_ZN21ContributorRepository22skeletonAboutToBeAddedEP7ICoursei
libartikulatecore.so.0:_ZN21ContributorRepository24skeletonAboutToBeRemovedEii
libartikulatecore.so.0:_ZN21ContributorRepository24updateCourseFromSkeletonESt10shared_ptrI15IEditableCourseE
libartikulatecore.so.0:_ZN21ContributorRepository30languageResourceAboutToBeAddedESt10shared_ptrI9ILanguageEi
libartikulatecore.so.0:_ZN21ContributorRepository4syncEv
libartikulatecore.so.0:_ZN21ContributorRepository9addCourseERK4QUrl
libartikulatecore.so.0:_ZN21ContributorRepositoryC1E4QUrl
libartikulatecore.so.0:_ZN21ContributorRepositoryC1Ev
libartikulatecore.so.0:_ZN21ContributorRepositoryC2E4QUrl
libartikulatecore.so.0:_ZN21ContributorRepositoryC2Ev
libartikulatecore.so.0:_ZN21ContributorRepositoryD0Ev
libartikulatecore.so.0:_ZN21ContributorRepositoryD1Ev
libartikulatecore.so.0:_ZN21ContributorRepositoryD2Ev
libartikulatecore.so.0:_ZN21DrawerTrainingActions10setSessionEP15ISessionActions
libartikulatecore.so.0:_ZN21DrawerTrainingActions11qt_metacallEN11QMetaObject4CallEiPPv
libartikulatecore.so.0:_ZN21DrawerTrainingActions11qt_metacastEPKc
libartikulatecore.so.0:_ZN21DrawerTrainingActions14actionsChangedEv
libartikulatecore.so.0:_ZN21DrawerTrainingActions14sessionChangedEv
libartikulatecore.so.0:_ZN21DrawerTrainingActions17triggerPhraseViewEv
libartikulatecore.so.0:_ZN21DrawerTrainingActionsC1EP7QObject
libartikulatecore.so.0:_ZN21DrawerTrainingActionsC2EP7QObject
libartikulatecore.so.0:_ZN22EditableCourseResource10createUnitEv
libartikulatecore.so.0:_ZN22EditableCourseResource10updateFromESt10shared_ptrI7ICourseE
libartikulatecore.so.0:_ZN22EditableCourseResource11qt_metacallEN11QMetaObject4CallEiPPv
libartikulatecore.so.0:_ZN22EditableCourseResource11qt_metacastEPKc
libartikulatecore.so.0:_ZN22EditableCourseResource11setLanguageESt10shared_ptrI9ILanguageE
libartikulatecore.so.0:_ZN22EditableCourseResource12deletePhraseEP7IPhrase
libartikulatecore.so.0:_ZN22EditableCourseResource12markModifiedEv
libartikulatecore.so.0:_ZN22EditableCourseResource12setForeignIdE7QString
libartikulatecore.so.0:_ZN22EditableCourseResource12setI18nTitleE7QString
libartikulatecore.so.0:_ZN22EditableCourseResource12titleChangedEv
libartikulatecore.so.0:_ZN22EditableCourseResource14setDescriptionE7QString
libartikulatecore.so.0:_ZN22EditableCourseResource15languageChangedEv
libartikulatecore.so.0:_ZN22EditableCourseResource16foreignIdChangedEv
libartikulatecore.so.0:_ZN22EditableCourseResource16i18nTitleChangedEv
libartikulatecore.so.0:_ZN22EditableCourseResource17createPhraseAfterEP7IPhrase
libartikulatecore.so.0:_ZN22EditableCourseResource18descriptionChangedEv
libartikulatecore.so.0:_ZN22EditableCourseResource4syncEv
libartikulatecore.so.0:_ZN22EditableCourseResource5setIdE7QString
libartikulatecore.so.0:_ZN22EditableCourseResource5unitsEv
libartikulatecore.so.0:_ZN22EditableCourseResource6createERK4QUrlP19IResourceRepository
libartikulatecore.so.0:_ZN22EditableCourseResource7addUnitESt10shared_ptrI4UnitE
libartikulatecore.so.0:_ZN22EditableCourseResource7setSelfESt10shared_ptrI7ICourseE
libartikulatecore.so.0:_ZN22EditableCourseResource8setTitleE7QString
libartikulatecore.so.0:_ZN22EditableCourseResource9idChangedEv
libartikulatecore.so.0:_ZN22EditableCourseResourceC1ERK4QUrlP19IResourceRepository
libartikulatecore.so.0:_ZN22EditableCourseResourceC2ERK4QUrlP19IResourceRepository
libartikulatecore.so.0:_ZN4Unit11qt_metacallEN11QMetaObject4CallEiPPv
libartikulatecore.so.0:_ZN4Unit11qt_metacastEPKc
libartikulatecore.so.0:_ZN4Unit12removePhraseESt10shared_ptrI7IPhraseE
libartikulatecore.so.0:_ZN4Unit12setForeignIdERK7QString
libartikulatecore.so.0:_ZN4Unit12setI18nTitleERK7QString
libartikulatecore.so.0:_ZN4Unit18emitPhrasesChangedESt10shared_ptrI13IEditableUnitE
libartikulatecore.so.0:_ZN4Unit5setIdERK7QString
libartikulatecore.so.0:_ZN4Unit6createEv
libartikulatecore.so.0:_ZN4Unit7setSelfESt10shared_ptrI5IUnitE
libartikulatecore.so.0:_ZN4Unit8setTitleERK7QString
libartikulatecore.so.0:_ZN4Unit9addPhraseESt10shared_ptrI15IEditablePhraseEi
libartikulatecore.so.0:_ZN4Unit9setCourseESt10shared_ptrI7ICourseE
libartikulatecore.so.0:_ZN4UnitC1EP7QObject
libartikulatecore.so.0:_ZN4UnitC2EP7QObject
libartikulatecore.so.0:_ZN4UnitD0Ev
libartikulatecore.so.0:_ZN4UnitD1Ev
libartikulatecore.so.0:_ZN4UnitD2Ev
libartikulatecore.so.0:_ZN5IUnit11phraseAddedESt10shared_ptrI7IPhraseE
libartikulatecore.so.0:_ZN5IUnit11qt_metacallEN11QMetaObject4CallEiPPv
libartikulatecore.so.0:_ZN5IUnit11qt_metacastEPKc
libartikulatecore.so.0:_ZN5IUnit12titleChangedEv
libartikulatecore.so.0:_ZN5IUnit13courseChangedEv
libartikulatecore.so.0:_ZN5IUnit13phraseRemovedEv
libartikulatecore.so.0:_ZN5IUnit20phraseAboutToBeAddedESt10shared_ptrI7IPhraseEi
libartikulatecore.so.0:_ZN5IUnit22phraseAboutToBeRemovedEi
libartikulatecore.so.0:_ZN5IUnit24displayPhraseTypeChangedEv
libartikulatecore.so.0:_ZN5IUnit8modifiedEv
libartikulatecore.so.0:_ZN5IUnit9idChangedEv
libartikulatecore.so.0:_ZN6Phrase10addPhonemeEP7Phoneme
libartikulatecore.so.0:_ZN6Phrase10hasPhonemeEP7Phoneme
libartikulatecore.so.0:_ZN6Phrase11qt_metacallEN11QMetaObject4CallEiPPv
libartikulatecore.so.0:_ZN6Phrase11qt_metacastEPKc
libartikulatecore.so.0:_ZN6Phrase11setExcludedEb
libartikulatecore.so.0:_ZN6Phrase11setProgressEi
libartikulatecore.so.0:_ZN6Phrase11seti18nTextE7QString
libartikulatecore.so.0:_ZN6Phrase12setEditStateEN15IEditablePhrase9EditStateE
libartikulatecore.so.0:_ZN6Phrase12setEditStateERK7QString
libartikulatecore.so.0:_ZN6Phrase12setForeignIdE7QString
libartikulatecore.so.0:_ZN6Phrase13removePhonemeEP7Phoneme
libartikulatecore.so.0:_ZN6Phrase14updateProgressENS_8ProgressE
libartikulatecore.so.0:_ZN6Phrase15excludedChangedEv
libartikulatecore.so.0:_ZN6Phrase15progressChangedEv
libartikulatecore.so.0:_ZN6Phrase15setSoundFileUrlEv
libartikulatecore.so.0:_ZN6Phrase5setIdE7QString
libartikulatecore.so.0:_ZN6Phrase6createEv
libartikulatecore.so.0:_ZN6Phrase7setSelfESt10shared_ptrI7IPhraseE
libartikulatecore.so.0:_ZN6Phrase7setTextE7QString
libartikulatecore.so.0:_ZN6Phrase7setTypeEN7IPhrase4TypeE
libartikulatecore.so.0:_ZN6Phrase7setTypeERK7QString
libartikulatecore.so.0:_ZN6Phrase7setUnitESt10shared_ptrI5IUnitE
libartikulatecore.so.0:_ZN6Phrase8setSoundE4QUrl
libartikulatecore.so.0:_ZN6PhraseC1Ev
libartikulatecore.so.0:_ZN6PhraseC2Ev
libartikulatecore.so.0:_ZN6PhraseD0Ev
libartikulatecore.so.0:_ZN6PhraseD1Ev
libartikulatecore.so.0:_ZN6PhraseD2Ev
libartikulatecore.so.0:_ZN6Player11qt_metacallEN11QMetaObject4CallEiPPv
libartikulatecore.so.0:_ZN6Player11qt_metacastEPKc
libartikulatecore.so.0:_ZN6Player11updateStateEv
libartikulatecore.so.0:_ZN6Player12setSoundFileERK4QUrl
libartikulatecore.so.0:_ZN6Player12setSoundFileERK7QString
libartikulatecore.so.0:_ZN6Player12stateChangedEv
libartikulatecore.so.0:_ZN6Player16soundFileChangedEv
libartikulatecore.so.0:_ZN6Player4stopEv
libartikulatecore.so.0:_ZN6Player8playbackEv
libartikulatecore.so.0:_ZN6PlayerC1EP7QObject
libartikulatecore.so.0:_ZN6PlayerC2EP7QObject
libartikulatecore.so.0:_ZN7ICourse11qt_metacallEN11QMetaObject4CallEiPPv
libartikulatecore.so.0:_ZN7ICourse11qt_metacastEPKc
libartikulatecore.so.0:_ZN7ICourse12titleChangedEv
libartikulatecore.so.0:_ZN7ICourse12unitsRemovedEv
libartikulatecore.so.0:_ZN7ICourse15languageChangedEv
libartikulatecore.so.0:_ZN7ICourse18descriptionChangedEv
libartikulatecore.so.0:_ZN7ICourse18unitAboutToBeAddedESt10shared_ptrI4UnitEi
libartikulatecore.so.0:_ZN7ICourse21unitsAboutToBeRemovedEii
libartikulatecore.so.0:_ZN7ICourse9idChangedEv
libartikulatecore.so.0:_ZN7ICourse9unitAddedEv
libartikulatecore.so.0:_ZN7IPhrase11qt_metacallEN11QMetaObject4CallEiPPv
libartikulatecore.so.0:_ZN7IPhrase11qt_metacastEPKc
libartikulatecore.so.0:_ZN7IPhrase11textChangedEv
libartikulatecore.so.0:_ZN7IPhrase11typeChangedEv
libartikulatecore.so.0:_ZN7IPhrase11unitChangedEv
libartikulatecore.so.0:_ZN7IPhrase12soundChangedEv
libartikulatecore.so.0:_ZN7IPhrase15i18nTextChangedEv
libartikulatecore.so.0:_ZN7IPhrase15phonemesChangedEv
libartikulatecore.so.0:_ZN7IPhrase9idChangedEv
libartikulatecore.so.0:_ZN7Phoneme11qt_metacallEN11QMetaObject4CallEiPPv
libartikulatecore.so.0:_ZN7Phoneme11qt_metacastEPKc
libartikulatecore.so.0:_ZN7Phoneme12titleChangedEv
libartikulatecore.so.0:_ZN7Phoneme5setIdERK7QString
libartikulatecore.so.0:_ZN7Phoneme8setTitleERK7QString
libartikulatecore.so.0:_ZN7Phoneme9idChangedEv
libartikulatecore.so.0:_ZN7PhonemeC1EP7QObject
libartikulatecore.so.0:_ZN7PhonemeC2EP7QObject
libartikulatecore.so.0:_ZN8IconItem10setEnabledEb
libartikulatecore.so.0:_ZN8IconItem11qt_metacallEN11QMetaObject4CallEiPPv
libartikulatecore.so.0:_ZN8IconItem11qt_metacastEPKc
libartikulatecore.so.0:_ZN8IconItem12stateChangedENS_5StateE
libartikulatecore.so.0:_ZN8IconItem15geometryChangedERK6QRectFS2_
libartikulatecore.so.0:_ZN8IconItem15updatePaintNodeEP7QSGNodePN10QQuickItem19UpdatePaintNodeDataE
libartikulatecore.so.0:_ZN8IconItem7setIconERK8QVariant
libartikulatecore.so.0:_ZN8IconItem8setStateENS_5StateE
libartikulatecore.so.0:_ZN8IconItem9setSmoothEb
libartikulatecore.so.0:_ZN8IconItemC1EP10QQuickItem
libartikulatecore.so.0:_ZN8IconItemC2EP10QQuickItem
libartikulatecore.so.0:_ZN8IconItemD0Ev
libartikulatecore.so.0:_ZN8IconItemD1Ev
libartikulatecore.so.0:_ZN8IconItemD2Ev
libartikulatecore.so.0:_ZN8Language11qt_metacallEN11QMetaObject4CallEiPPv
libartikulatecore.so.0:_ZN8Language11qt_metacastEPKc
libartikulatecore.so.0:_ZN8Language12seti18nTitleERK7QString
libartikulatecore.so.0:_ZN8Language12titleChangedEv
libartikulatecore.so.0:_ZN8Language15phonemesChangedEv
libartikulatecore.so.0:_ZN8Language16i18nTitleChangedEv
libartikulatecore.so.0:_ZN8Language5setIdERK7QString
libartikulatecore.so.0:_ZN8Language6createE4QUrl
libartikulatecore.so.0:_ZN8Language7setFileERK4QUrl
libartikulatecore.so.0:_ZN8Language8setTitleERK7QString
libartikulatecore.so.0:_ZN8Language9idChangedEv
libartikulatecore.so.0:_ZN8LanguageC1Ev
libartikulatecore.so.0:_ZN8LanguageC2Ev
libartikulatecore.so.0:_ZN8LanguageD0Ev
libartikulatecore.so.0:_ZN8LanguageD1Ev
libartikulatecore.so.0:_ZN8LanguageD2Ev
libartikulatecore.so.0:_ZN8Recorder11clearBufferEv
libartikulatecore.so.0:_ZN8Recorder11qt_metacallEN11QMetaObject4CallEiPPv
libartikulatecore.so.0:_ZN8Recorder11qt_metacastEPKc
libartikulatecore.so.0:_ZN8Recorder11storeToFileERK7QString
libartikulatecore.so.0:_ZN8Recorder12startCaptureEv
libartikulatecore.so.0:_ZN8Recorder12stateChangedEv
libartikulatecore.so.0:_ZN8Recorder20recordingFileChangedEv
libartikulatecore.so.0:_ZN8Recorder4stopEv
libartikulatecore.so.0:_ZN8RecorderC1EP7QObject
libartikulatecore.so.0:_ZN8RecorderC2EP7QObject
libartikulatecore.so.0:_ZN8RecorderD0Ev
libartikulatecore.so.0:_ZN8RecorderD1Ev
libartikulatecore.so.0:_ZN8RecorderD2Ev
libartikulatecore.so.0:_ZN9ILanguage11qt_metacallEN11QMetaObject4CallEiPPv
libartikulatecore.so.0:_ZN9ILanguage11qt_metacastEPKc
libartikulatecore.so.0:_ZN9ILanguage12titleChangedEv
libartikulatecore.so.0:_ZN9ILanguage15phonemesChangedEv
libartikulatecore.so.0:_ZN9ILanguage16i18nTitleChangedEv
libartikulatecore.so.0:_ZN9ILanguage20phonemeGroupsChangedEv
libartikulatecore.so.0:_ZN9ILanguage9idChangedEv
libartikulatecore.so.0:_ZNK11Application10metaObjectEv
libartikulatecore.so.0:_ZNK11Application18editableRepositoryEv
libartikulatecore.so.0:_ZNK11Application18resourceRepositoryEv
libartikulatecore.so.0:_ZNK11CourseModel10headerDataEiN2Qt11OrientationEi
libartikulatecore.so.0:_ZNK11CourseModel10metaObjectEv
libartikulatecore.so.0:_ZNK11CourseModel18resourceRepositoryEv
libartikulatecore.so.0:_ZNK11CourseModel4dataERK11QModelIndexi
libartikulatecore.so.0:_ZNK11CourseModel6courseEi
libartikulatecore.so.0:_ZNK11CourseModel8rowCountERK11QModelIndex
libartikulatecore.so.0:_ZNK11CourseModel9roleNamesEv
libartikulatecore.so.0:_ZNK12PhonemeGroup10metaObjectEv
libartikulatecore.so.0:_ZNK12PhonemeGroup11descriptionEv
libartikulatecore.so.0:_ZNK12PhonemeGroup2idEv
libartikulatecore.so.0:_ZNK12PhonemeGroup5titleEv
libartikulatecore.so.0:_ZNK12PhonemeGroup8containsESt10shared_ptrI7PhonemeE
libartikulatecore.so.0:_ZNK12PhonemeGroup8phonemesEv
libartikulatecore.so.0:_ZNK13EditorSession10activeUnitEv
libartikulatecore.so.0:_ZNK13EditorSession10metaObjectEv
libartikulatecore.so.0:_ZNK13EditorSession12activeActionEv
libartikulatecore.so.0:_ZNK13EditorSession12activePhraseEv
libartikulatecore.so.0:_ZNK13EditorSession12skeletonModeEv
libartikulatecore.so.0:_ZNK13EditorSession13hasNextPhraseEv
libartikulatecore.so.0:_ZNK13EditorSession15trainingActionsEv
libartikulatecore.so.0:_ZNK13EditorSession17hasPreviousPhraseEv
libartikulatecore.so.0:_ZNK13EditorSession6courseEv
libartikulatecore.so.0:_ZNK13EditorSession8languageEv
libartikulatecore.so.0:_ZNK13IEditableUnit10metaObjectEv
libartikulatecore.so.0:_ZNK13SkeletonModel10headerDataEiN2Qt11OrientationEi
libartikulatecore.so.0:_ZNK13SkeletonModel10metaObjectEv
libartikulatecore.so.0:_ZNK13SkeletonModel18resourceRepositoryEv
libartikulatecore.so.0:_ZNK13SkeletonModel4dataERK11QModelIndexi
libartikulatecore.so.0:_ZNK13SkeletonModel8rowCountERK11QModelIndex
libartikulatecore.so.0:_ZNK13SkeletonModel8skeletonEi
libartikulatecore.so.0:_ZNK13SkeletonModel9roleNamesEv
libartikulatecore.so.0:_ZNK14CourseResource10metaObjectEv
libartikulatecore.so.0:_ZNK14CourseResource11descriptionEv
libartikulatecore.so.0:_ZNK14CourseResource13languageTitleEv
libartikulatecore.so.0:_ZNK14CourseResource2idEv
libartikulatecore.so.0:_ZNK14CourseResource4fileEv
libartikulatecore.so.0:_ZNK14CourseResource4selfEv
libartikulatecore.so.0:_ZNK14CourseResource5titleEv
libartikulatecore.so.0:_ZNK14CourseResource8languageEv
libartikulatecore.so.0:_ZNK14CourseResource9foreignIdEv
libartikulatecore.so.0:_ZNK14CourseResource9i18nTitleEv
libartikulatecore.so.0:_ZNK14TrainingAction10metaObjectEv
libartikulatecore.so.0:_ZNK14TrainingAction11columnCountERK11QModelIndex
libartikulatecore.so.0:_ZNK14TrainingAction12actionsCountEv
libartikulatecore.so.0:_ZNK14TrainingAction4dataERK11QModelIndexi
libartikulatecore.so.0:_ZNK14TrainingAction4textEv
libartikulatecore.so.0:_ZNK14TrainingAction6actionEi
libartikulatecore.so.0:_ZNK14TrainingAction6phraseEv
libartikulatecore.so.0:_ZNK14TrainingAction7actionsEv
libartikulatecore.so.0:_ZNK14TrainingAction7checkedEv
libartikulatecore.so.0:_ZNK14TrainingAction7enabledEv
libartikulatecore.so.0:_ZNK14TrainingAction8rowCountERK11QModelIndex
libartikulatecore.so.0:_ZNK14TrainingAction9roleNamesEv
libartikulatecore.so.0:_ZNK15IEditableCourse10metaObjectEv
libartikulatecore.so.0:_ZNK15IEditablePhrase10metaObjectEv
libartikulatecore.so.0:_ZNK15ISessionActions10metaObjectEv
libartikulatecore.so.0:_ZNK15TrainingSession10activeUnitEv
libartikulatecore.so.0:_ZNK15TrainingSession10metaObjectEv
libartikulatecore.so.0:_ZNK15TrainingSession11hasPreviousEv
libartikulatecore.so.0:_ZNK15TrainingSession12activeActionEv
libartikulatecore.so.0:_ZNK15TrainingSession12activePhraseEv
libartikulatecore.so.0:_ZNK15TrainingSession15trainingActionsEv
libartikulatecore.so.0:_ZNK15TrainingSession6courseEv
libartikulatecore.so.0:_ZNK15TrainingSession7hasNextEv
libartikulatecore.so.0:_ZNK16SkeletonResource10isModifiedEv
libartikulatecore.so.0:_ZNK16SkeletonResource10metaObjectEv
libartikulatecore.so.0:_ZNK16SkeletonResource11descriptionEv
libartikulatecore.so.0:_ZNK16SkeletonResource12exportToFileERK4QUrl
libartikulatecore.so.0:_ZNK16SkeletonResource13languageTitleEv
libartikulatecore.so.0:_ZNK16SkeletonResource2idEv
libartikulatecore.so.0:_ZNK16SkeletonResource4fileEv
libartikulatecore.so.0:_ZNK16SkeletonResource4selfEv
libartikulatecore.so.0:_ZNK16SkeletonResource5titleEv
libartikulatecore.so.0:_ZNK16SkeletonResource8languageEv
libartikulatecore.so.0:_ZNK16SkeletonResource9foreignIdEv
libartikulatecore.so.0:_ZNK16SkeletonResource9i18nTitleEv
libartikulatecore.so.0:_ZNK18ResourceRepository10metaObjectEv
libartikulatecore.so.0:_ZNK18ResourceRepository15storageLocationEv
libartikulatecore.so.0:_ZNK18ResourceRepository7coursesERK7QString
libartikulatecore.so.0:_ZNK18ResourceRepository7coursesEv
libartikulatecore.so.0:_ZNK18ResourceRepository8languageERK7QString
libartikulatecore.so.0:_ZNK18ResourceRepository9languagesEv
libartikulatecore.so.0:_ZNK18TrainingActionIcon10metaObjectEv
libartikulatecore.so.0:_ZNK19IEditableRepository10metaObjectEv
libartikulatecore.so.0:_ZNK19IResourceRepository10metaObjectEv
libartikulatecore.so.0:_ZNK21ContributorRepository10metaObjectEv
libartikulatecore.so.0:_ZNK21ContributorRepository14editableCourseESt10shared_ptrI9ILanguageEi
libartikulatecore.so.0:_ZNK21ContributorRepository15editableCoursesEv
libartikulatecore.so.0:_ZNK21ContributorRepository15storageLocationEv
libartikulatecore.so.0:_ZNK21ContributorRepository7coursesERK7QString
libartikulatecore.so.0:_ZNK21ContributorRepository7coursesEv
libartikulatecore.so.0:_ZNK21ContributorRepository8languageEPN14LearnerProfile12LearningGoalE
libartikulatecore.so.0:_ZNK21ContributorRepository8languageEi
libartikulatecore.so.0:_ZNK21ContributorRepository8modifiedEv
libartikulatecore.so.0:_ZNK21ContributorRepository9languagesEv
libartikulatecore.so.0:_ZNK21ContributorRepository9skeletonsEv
libartikulatecore.so.0:_ZNK21DrawerTrainingActions10metaObjectEv
libartikulatecore.so.0:_ZNK21DrawerTrainingActions7actionsEv
libartikulatecore.so.0:_ZNK21DrawerTrainingActions7sessionEv
libartikulatecore.so.0:_ZNK22EditableCourseResource10isModifiedEv
libartikulatecore.so.0:_ZNK22EditableCourseResource10metaObjectEv
libartikulatecore.so.0:_ZNK22EditableCourseResource11descriptionEv
libartikulatecore.so.0:_ZNK22EditableCourseResource12exportToFileERK4QUrl
libartikulatecore.so.0:_ZNK22EditableCourseResource13languageTitleEv
libartikulatecore.so.0:_ZNK22EditableCourseResource2idEv
libartikulatecore.so.0:_ZNK22EditableCourseResource4fileEv
libartikulatecore.so.0:_ZNK22EditableCourseResource4selfEv
libartikulatecore.so.0:_ZNK22EditableCourseResource5titleEv
libartikulatecore.so.0:_ZNK22EditableCourseResource8languageEv
libartikulatecore.so.0:_ZNK22EditableCourseResource9foreignIdEv
libartikulatecore.so.0:_ZNK22EditableCourseResource9i18nTitleEv
libartikulatecore.so.0:_ZNK4Unit10metaObjectEv
libartikulatecore.so.0:_ZNK4Unit2idEv
libartikulatecore.so.0:_ZNK4Unit4selfEv
libartikulatecore.so.0:_ZNK4Unit5titleEv
libartikulatecore.so.0:_ZNK4Unit6courseEv
libartikulatecore.so.0:_ZNK4Unit7phrasesEv
libartikulatecore.so.0:_ZNK4Unit9foreignIdEv
libartikulatecore.so.0:_ZNK4Unit9i18nTitleEv
libartikulatecore.so.0:_ZNK5IUnit10metaObjectEv
libartikulatecore.so.0:_ZNK6Phrase10isExcludedEv
libartikulatecore.so.0:_ZNK6Phrase10metaObjectEv
libartikulatecore.so.0:_ZNK6Phrase10typeStringEv
libartikulatecore.so.0:_ZNK6Phrase12soundFileUrlEv
libartikulatecore.so.0:_ZNK6Phrase15editStateStringEv
libartikulatecore.so.0:_ZNK6Phrase19soundFileOutputPathEv
libartikulatecore.so.0:_ZNK6Phrase2idEv
libartikulatecore.so.0:_ZNK6Phrase4selfEv
libartikulatecore.so.0:_ZNK6Phrase4textEv
libartikulatecore.so.0:_ZNK6Phrase4typeEv
libartikulatecore.so.0:_ZNK6Phrase4unitEv
libartikulatecore.so.0:_ZNK6Phrase5soundEv
libartikulatecore.so.0:_ZNK6Phrase8i18nTextEv
libartikulatecore.so.0:_ZNK6Phrase8phonemesEv
libartikulatecore.so.0:_ZNK6Phrase8progressEv
libartikulatecore.so.0:_ZNK6Phrase9editStateEv
libartikulatecore.so.0:_ZNK6Phrase9foreignIdEv
libartikulatecore.so.0:_ZNK6Player10metaObjectEv
libartikulatecore.so.0:_ZNK6Player5stateEv
libartikulatecore.so.0:_ZNK6Player9soundFileEv
libartikulatecore.so.0:_ZNK7ICourse10metaObjectEv
libartikulatecore.so.0:_ZNK7IPhrase10metaObjectEv
libartikulatecore.so.0:_ZNK7Phoneme10metaObjectEv
libartikulatecore.so.0:_ZNK7Phoneme2idEv
libartikulatecore.so.0:_ZNK7Phoneme5titleEv
libartikulatecore.so.0:_ZNK8IconItem10metaObjectEv
libartikulatecore.so.0:_ZNK8IconItem13implicitWidthEv
libartikulatecore.so.0:_ZNK8IconItem14implicitHeightEv
libartikulatecore.so.0:_ZNK8IconItem4iconEv
libartikulatecore.so.0:_ZNK8IconItem5stateEv
libartikulatecore.so.0:_ZNK8IconItem6smoothEv
libartikulatecore.so.0:_ZNK8IconItem7enabledEv
libartikulatecore.so.0:_ZNK8Language10metaObjectEv
libartikulatecore.so.0:_ZNK8Language13phonemeGroupsEv
libartikulatecore.so.0:_ZNK8Language2idEv
libartikulatecore.so.0:_ZNK8Language4fileEv
libartikulatecore.so.0:_ZNK8Language5titleEv
libartikulatecore.so.0:_ZNK8Language8phonemesEv
libartikulatecore.so.0:_ZNK8Language9i18nTitleEv
libartikulatecore.so.0:_ZNK8Recorder10metaObjectEv
libartikulatecore.so.0:_ZNK8Recorder13recordingFileEv
libartikulatecore.so.0:_ZNK8Recorder5stateEv
libartikulatecore.so.0:_ZNK9ILanguage10metaObjectEv
libartikulatecore.so.0:_ZThn16_N8IconItemD0Ev
libartikulatecore.so.0:_ZThn16_N8IconItemD1Ev
libartikulatelearnerprofile.so.0:_ZN14LearnerProfile12LearningGoal11nameChangedEv
libartikulatelearnerprofile.so.0:_ZN14LearnerProfile12LearningGoal11qt_metacallEN11QMetaObject4CallEiPPv
libartikulatelearnerprofile.so.0:_ZN14LearnerProfile12LearningGoal11qt_metacastEPKc
libartikulatelearnerprofile.so.0:_ZN14LearnerProfile12LearningGoal13setIdentifierERK7QString
libartikulatelearnerprofile.so.0:_ZN14LearnerProfile12LearningGoal17identifierChangedEv
libartikulatelearnerprofile.so.0:_ZN14LearnerProfile12LearningGoal7setNameERK7QString
libartikulatelearnerprofile.so.0:_ZN14LearnerProfile12LearningGoalC1ENS0_8CategoryERK7QStringP7QObject
libartikulatelearnerprofile.so.0:_ZN14LearnerProfile12LearningGoalC1EP7QObject
libartikulatelearnerprofile.so.0:_ZN14LearnerProfile12LearningGoalC2ENS0_8CategoryERK7QStringP7QObject
libartikulatelearnerprofile.so.0:_ZN14LearnerProfile12LearningGoalC2EP7QObject
libartikulatelearnerprofile.so.0:_ZN14LearnerProfile12LearningGoalD0Ev
libartikulatelearnerprofile.so.0:_ZN14LearnerProfile12LearningGoalD1Ev
libartikulatelearnerprofile.so.0:_ZN14LearnerProfile12LearningGoalD2Ev
libartikulatelearnerprofile.so.0:_ZN14LearnerProfile14ProfileManager10addProfileERK7QString
libartikulatelearnerprofile.so.0:_ZN14LearnerProfile14ProfileManager11qt_metacallEN11QMetaObject4CallEiPPv
libartikulatelearnerprofile.so.0:_ZN14LearnerProfile14ProfileManager11qt_metacastEPKc
libartikulatelearnerprofile.so.0:_ZN14LearnerProfile14ProfileManager12profileAddedEPNS_7LearnerEi
libartikulatelearnerprofile.so.0:_ZN14LearnerProfile14ProfileManager12registerGoalENS_12LearningGoal8CategoryERK7QStringS5_
libartikulatelearnerprofile.so.0:_ZN14LearnerProfile14ProfileManager13removeProfileEPNS_7LearnerE
libartikulatelearnerprofile.so.0:_ZN14LearnerProfile14ProfileManager14profileRemovedEv
libartikulatelearnerprofile.so.0:_ZN14LearnerProfile14ProfileManager14recordProgressEPNS_7LearnerEPNS_12LearningGoalERK7QStringS7_ii
libartikulatelearnerprofile.so.0:_ZN14LearnerProfile14ProfileManager16setActiveProfileEPNS_7LearnerE
libartikulatelearnerprofile.so.0:_ZN14LearnerProfile14ProfileManager18removeLearningGoalEPNS_7LearnerEPNS_12LearningGoalE
libartikulatelearnerprofile.so.0:_ZN14LearnerProfile14ProfileManager19openImageFileDialogEv
libartikulatelearnerprofile.so.0:_ZN14LearnerProfile14ProfileManager19profileCountChangedEv
libartikulatelearnerprofile.so.0:_ZN14LearnerProfile14ProfileManager20activeProfileChangedEv
libartikulatelearnerprofile.so.0:_ZN14LearnerProfile14ProfileManager23profileAboutToBeRemovedEi
libartikulatelearnerprofile.so.0:_ZN14LearnerProfile14ProfileManager4syncEPNS_7LearnerE
libartikulatelearnerprofile.so.0:_ZN14LearnerProfile14ProfileManager4syncEv
libartikulatelearnerprofile.so.0:_ZN14LearnerProfile14ProfileManager7profileEi
libartikulatelearnerprofile.so.0:_ZN14LearnerProfile14ProfileManagerC1EP7QObject
libartikulatelearnerprofile.so.0:_ZN14LearnerProfile14ProfileManagerC2EP7QObject
libartikulatelearnerprofile.so.0:_ZN14LearnerProfile14ProfileManagerD0Ev
libartikulatelearnerprofile.so.0:_ZN14LearnerProfile14ProfileManagerD1Ev
libartikulatelearnerprofile.so.0:_ZN14LearnerProfile14ProfileManagerD2Ev
libartikulatelearnerprofile.so.0:_ZN14LearnerProfile17LearningGoalModel10setLearnerEPNS_7LearnerE
libartikulatelearnerprofile.so.0:_ZN14LearnerProfile17LearningGoalModel11qt_metacallEN11QMetaObject4CallEiPPv
libartikulatelearnerprofile.so.0:_ZN14LearnerProfile17LearningGoalModel11qt_metacastEPKc
libartikulatelearnerprofile.so.0:_ZN14LearnerProfile17LearningGoalModel14learnerChangedEv
libartikulatelearnerprofile.so.0:_ZN14LearnerProfile17LearningGoalModel17setProfileManagerEPNS_14ProfileManagerE
libartikulatelearnerprofile.so.0:_ZN14LearnerProfile17LearningGoalModel19learningGoalChangedEi
libartikulatelearnerprofile.so.0:_ZN14LearnerProfile17LearningGoalModel19onLearningGoalAddedEv
libartikulatelearnerprofile.so.0:_ZN14LearnerProfile17LearningGoalModel21profileManagerChangedEv
libartikulatelearnerprofile.so.0:_ZN14LearnerProfile17LearningGoalModel23emitLearningGoalChangedEi
libartikulatelearnerprofile.so.0:_ZN14LearnerProfile17LearningGoalModel28onLearningGoalAboutToBeAddedEPNS_12LearningGoalEi
libartikulatelearnerprofile.so.0:_ZN14LearnerProfile17LearningGoalModel30onLearningGoalAboutToBeRemovedEi
libartikulatelearnerprofile.so.0:_ZN14LearnerProfile17LearningGoalModelC1EP7QObject
libartikulatelearnerprofile.so.0:_ZN14LearnerProfile17LearningGoalModelC2EP7QObject
libartikulatelearnerprofile.so.0:_ZN14LearnerProfile17LearningGoalModelD0Ev
libartikulatelearnerprofile.so.0:_ZN14LearnerProfile17LearningGoalModelD1Ev
libartikulatelearnerprofile.so.0:_ZN14LearnerProfile17LearningGoalModelD2Ev
libartikulatelearnerprofile.so.0:_ZN14LearnerProfile7Learner10clearImageEv
libartikulatelearnerprofile.so.0:_ZN14LearnerProfile7Learner10removeGoalEPNS_12LearningGoalE
libartikulatelearnerprofile.so.0:_ZN14LearnerProfile7Learner11goalRemovedEPS0_PNS_12LearningGoalE
libartikulatelearnerprofile.so.0:_ZN14LearnerProfile7Learner11importImageERK7QString
libartikulatelearnerprofile.so.0:_ZN14LearnerProfile7Learner11nameChangedEv
libartikulatelearnerprofile.so.0:_ZN14LearnerProfile7Learner11qt_metacallEN11QMetaObject4CallEiPPv
libartikulatelearnerprofile.so.0:_ZN14LearnerProfile7Learner11qt_metacastEPKc
libartikulatelearnerprofile.so.0:_ZN14LearnerProfile7Learner12imageChangedEv
libartikulatelearnerprofile.so.0:_ZN14LearnerProfile7Learner13setActiveGoalENS0_8CategoryERK7QString
libartikulatelearnerprofile.so.0:_ZN14LearnerProfile7Learner13setActiveGoalEPNS_12LearningGoalE
libartikulatelearnerprofile.so.0:_ZN14LearnerProfile7Learner13setIdentifierEi
libartikulatelearnerprofile.so.0:_ZN14LearnerProfile7Learner16goalCountChangedEv
libartikulatelearnerprofile.so.0:_ZN14LearnerProfile7Learner17activeGoalChangedEv
libartikulatelearnerprofile.so.0:_ZN14LearnerProfile7Learner17identifierChangedEv
libartikulatelearnerprofile.so.0:_ZN14LearnerProfile7Learner18goalAboutToBeAddedEPNS_12LearningGoalEi
libartikulatelearnerprofile.so.0:_ZN14LearnerProfile7Learner20goalAboutToBeRemovedEi
libartikulatelearnerprofile.so.0:_ZN14LearnerProfile7Learner7addGoalEPNS_12LearningGoalE
libartikulatelearnerprofile.so.0:_ZN14LearnerProfile7Learner7setNameERK7QString
libartikulatelearnerprofile.so.0:_ZN14LearnerProfile7Learner9goalAddedEv
libartikulatelearnerprofile.so.0:_ZN14LearnerProfile7LearnerC1EP7QObject
libartikulatelearnerprofile.so.0:_ZN14LearnerProfile7LearnerC2EP7QObject
libartikulatelearnerprofile.so.0:_ZN14LearnerProfile7LearnerD0Ev
libartikulatelearnerprofile.so.0:_ZN14LearnerProfile7LearnerD1Ev
libartikulatelearnerprofile.so.0:_ZN14LearnerProfile7LearnerD2Ev
libartikulatelearnerprofile.so.0:_ZNK14LearnerProfile12LearningGoal10identifierEv
libartikulatelearnerprofile.so.0:_ZNK14LearnerProfile12LearningGoal10metaObjectEv
libartikulatelearnerprofile.so.0:_ZNK14LearnerProfile12LearningGoal4nameEv
libartikulatelearnerprofile.so.0:_ZNK14LearnerProfile12LearningGoal8categoryEv
libartikulatelearnerprofile.so.0:_ZNK14LearnerProfile14ProfileManager10metaObjectEv
libartikulatelearnerprofile.so.0:_ZNK14LearnerProfile14ProfileManager12profileCountEv
libartikulatelearnerprofile.so.0:_ZNK14LearnerProfile14ProfileManager13activeProfileEv
libartikulatelearnerprofile.so.0:_ZNK14LearnerProfile14ProfileManager14progressValuesEPNS_7LearnerEPNS_12LearningGoalERK7QString
libartikulatelearnerprofile.so.0:_ZNK14LearnerProfile14ProfileManager4goalENS_12LearningGoal8CategoryERK7QString
libartikulatelearnerprofile.so.0:_ZNK14LearnerProfile14ProfileManager5goalsEv
libartikulatelearnerprofile.so.0:_ZNK14LearnerProfile14ProfileManager8profilesEv
libartikulatelearnerprofile.so.0:_ZNK14LearnerProfile17LearningGoalModel10headerDataEiN2Qt11OrientationEi
libartikulatelearnerprofile.so.0:_ZNK14LearnerProfile17LearningGoalModel10metaObjectEv
libartikulatelearnerprofile.so.0:_ZNK14LearnerProfile17LearningGoalModel12learningGoalEi
libartikulatelearnerprofile.so.0:_ZNK14LearnerProfile17LearningGoalModel14profileManagerEv
libartikulatelearnerprofile.so.0:_ZNK14LearnerProfile17LearningGoalModel4dataERK11QModelIndexi
libartikulatelearnerprofile.so.0:_ZNK14LearnerProfile17LearningGoalModel7learnerEv
libartikulatelearnerprofile.so.0:_ZNK14LearnerProfile17LearningGoalModel8rowCountERK11QModelIndex
libartikulatelearnerprofile.so.0:_ZNK14LearnerProfile17LearningGoalModel9roleNamesEv
libartikulatelearnerprofile.so.0:_ZNK14LearnerProfile7Learner10activeGoalENS0_8CategoryE
libartikulatelearnerprofile.so.0:_ZNK14LearnerProfile7Learner10identifierEv
libartikulatelearnerprofile.so.0:_ZNK14LearnerProfile7Learner10metaObjectEv
libartikulatelearnerprofile.so.0:_ZNK14LearnerProfile7Learner4nameEv
libartikulatelearnerprofile.so.0:_ZNK14LearnerProfile7Learner5goalsEv
libartikulatelearnerprofile.so.0:_ZNK14LearnerProfile7Learner7hasGoalEPNS_12LearningGoalE
libartikulatelearnerprofile.so.0:_ZNK14LearnerProfile7Learner8imageUrlEv
libartikulatesound.so.0:_ZN16BackendInterface11qt_metacallEN11QMetaObject4CallEiPPv
libartikulatesound.so.0:_ZN16BackendInterface11qt_metacastEPKc
libartikulatesound.so.0:_ZN16BackendInterfaceC1ERK7QStringP7QObject
libartikulatesound.so.0:_ZN16BackendInterfaceC2ERK7QStringP7QObject
libartikulatesound.so.0:_ZN16BackendInterfaceD0Ev
libartikulatesound.so.0:_ZN16BackendInterfaceD1Ev
libartikulatesound.so.0:_ZN16BackendInterfaceD2Ev
libartikulatesound.so.0:_ZN22OutputBackendInterface11qt_metacallEN11QMetaObject4CallEiPPv
libartikulatesound.so.0:_ZN22OutputBackendInterface11qt_metacastEPKc
libartikulatesound.so.0:_ZN22OutputBackendInterface12stateChangedEv
libartikulatesound.so.0:_ZN22OutputBackendInterface15positionChangedEv
libartikulatesound.so.0:_ZN22OutputBackendInterfaceC1EP7QObject
libartikulatesound.so.0:_ZN22OutputBackendInterfaceC2EP7QObject
libartikulatesound.so.0:_ZN22OutputBackendInterfaceD0Ev
libartikulatesound.so.0:_ZN22OutputBackendInterfaceD1Ev
libartikulatesound.so.0:_ZN22OutputBackendInterfaceD2Ev
libartikulatesound.so.0:_ZN22OutputDeviceController11qt_metacallEN11QMetaObject4CallEiPPv
libartikulatesound.so.0:_ZN22OutputDeviceController11qt_metacastEPKc
libartikulatesound.so.0:_ZN22OutputDeviceController16emitChangedStateEv
libartikulatesound.so.0:_ZN22OutputDeviceController4playERK4QUrl
libartikulatesound.so.0:_ZN22OutputDeviceController4playERK7QString
libartikulatesound.so.0:_ZN22OutputDeviceController4selfEv
libartikulatesound.so.0:_ZN22OutputDeviceController4stopEv
libartikulatesound.so.0:_ZN22OutputDeviceController7startedEv
libartikulatesound.so.0:_ZN22OutputDeviceController7stoppedEv
libartikulatesound.so.0:_ZN22OutputDeviceController9setVolumeEi
libartikulatesound.so.0:_ZN22OutputDeviceControllerC1Ev
libartikulatesound.so.0:_ZN22OutputDeviceControllerC2Ev
libartikulatesound.so.0:_ZN22OutputDeviceControllerD0Ev
libartikulatesound.so.0:_ZN22OutputDeviceControllerD1Ev
libartikulatesound.so.0:_ZN22OutputDeviceControllerD2Ev
libartikulatesound.so.0:_ZN23CaptureBackendInterface11qt_metacallEN11QMetaObject4CallEiPPv
libartikulatesound.so.0:_ZN23CaptureBackendInterface11qt_metacastEPKc
libartikulatesound.so.0:_ZN23CaptureBackendInterfaceC1EP7QObject
libartikulatesound.so.0:_ZN23CaptureBackendInterfaceC2EP7QObject
libartikulatesound.so.0:_ZN23CaptureBackendInterfaceD0Ev
libartikulatesound.so.0:_ZN23CaptureBackendInterfaceD1Ev
libartikulatesound.so.0:_ZN23CaptureBackendInterfaceD2Ev
libartikulatesound.so.0:_ZN23CaptureDeviceController11qt_metacallEN11QMetaObject4CallEiPPv
libartikulatesound.so.0:_ZN23CaptureDeviceController11qt_metacastEPKc
libartikulatesound.so.0:_ZN23CaptureDeviceController11stopCaptureEv
libartikulatesound.so.0:_ZN23CaptureDeviceController12startCaptureERK7QString
libartikulatesound.so.0:_ZN23CaptureDeviceController14captureStartedEv
libartikulatesound.so.0:_ZN23CaptureDeviceController14captureStoppedEv
libartikulatesound.so.0:_ZN23CaptureDeviceController4selfEv
libartikulatesound.so.0:_ZN23CaptureDeviceController9setDeviceERK7QString
libartikulatesound.so.0:_ZN23CaptureDeviceControllerC1Ev
libartikulatesound.so.0:_ZN23CaptureDeviceControllerC2Ev
libartikulatesound.so.0:_ZN23CaptureDeviceControllerD0Ev
libartikulatesound.so.0:_ZN23CaptureDeviceControllerD1Ev
libartikulatesound.so.0:_ZN23CaptureDeviceControllerD2Ev
libartikulatesound.so.0:_ZNK16BackendInterface10metaObjectEv
libartikulatesound.so.0:_ZNK16BackendInterface4nameEv
libartikulatesound.so.0:_ZNK22OutputBackendInterface10metaObjectEv
libartikulatesound.so.0:_ZNK22OutputDeviceController10metaObjectEv
libartikulatesound.so.0:_ZNK22OutputDeviceController5stateEv
libartikulatesound.so.0:_ZNK22OutputDeviceController6volumeEv
libartikulatesound.so.0:_ZNK23CaptureBackendInterface10metaObjectEv
libartikulatesound.so.0:_ZNK23CaptureDeviceController10metaObjectEv
libartikulatesound.so.0:_ZNK23CaptureDeviceController5stateEv
libartikulatesound.so.0:_ZNK23CaptureDeviceController7devicesEv
